; Function Attrs: mustprogress uwtable
define hidden noundef ptr @_ZN7datalog21check_relation_plugin36mk_filter_interpreted_and_project_fnERKNS_13relation_baseEP3appjPKj(ptr noundef nonnull readonly align 8 captures(none) dereferenceable(56) %0, ptr noundef nonnull align 8 dereferenceable(28) %1, ptr noundef %2, i32 noundef %3, ptr noundef %4) unnamed_addr #3 align 2 personality ptr @__gxx_personality_v0 {
  %6 = alloca %class.obj_ref.44, align 8
  %7 = tail call ptr @__dynamic_cast(ptr nonnull readonly align 8 dereferenceable(28) %1, ptr nonnull @_ZTIN7datalog13relation_baseE, ptr nonnull @_ZTIN7datalog14check_relationE, i64 0) #24
  %8 = icmp eq ptr %7, null
  br i1 %8, label %9, label %_ZN7datalog21check_relation_plugin3getERKNS_13relation_baseE.exit

9:                                                ; preds = %5
  tail call void @__cxa_bad_cast() #27
  unreachable

_ZN7datalog21check_relation_plugin3getERKNS_13relation_baseE.exit: ; preds = %5
  %10 = getelementptr inbounds nuw i8, ptr %0, i64 48
  %11 = load ptr, ptr %10, align 8, !tbaa !384
  %12 = getelementptr inbounds nuw i8, ptr %7, i64 40
  %13 = load ptr, ptr %12, align 8, !tbaa !29
  %14 = load ptr, ptr %11, align 8, !tbaa !3
  %15 = getelementptr inbounds nuw i8, ptr %14, i64 160
  %16 = load ptr, ptr %15, align 8
  %17 = tail call noundef ptr %16(ptr noundef nonnull align 8 dereferenceable(32) %11, ptr noundef nonnull align 8 dereferenceable(28) %13, ptr noundef %2, i32 noundef %3, ptr noundef %4)
  call void @llvm.lifetime.start.p0(i64 16, ptr nonnull %6) #24
  %18 = getelementptr inbounds nuw i8, ptr %0, i64 40
  %19 = load ptr, ptr %18, align 8, !tbaa !43
  store ptr %2, ptr %6, align 8, !tbaa !639
  %20 = getelementptr inbounds nuw i8, ptr %6, i64 8
  store ptr %19, ptr %20, align 8, !tbaa !27
  %.not.i.i = icmp eq ptr %2, null
  br i1 %.not.i.i, label %_ZN7obj_refI3app11ast_managerEC2EPS0_RS1_.exit, label %_ZN11ast_manager7inc_refEP3ast.exit.i.i

_ZN11ast_manager7inc_refEP3ast.exit.i.i:          ; preds = %_ZN7datalog21check_relation_plugin3getERKNS_13relation_baseE.exit
  %21 = getelementptr inbounds nuw i8, ptr %2, i64 8
  %22 = load i32, ptr %21, align 4, !tbaa !37
  %23 = add i32 %22, 1
  store i32 %23, ptr %21, align 4, !tbaa !37
  br label %_ZN7obj_refI3app11ast_managerEC2EPS0_RS1_.exit

_ZN7obj_refI3app11ast_managerEC2EPS0_RS1_.exit:   ; preds = %_ZN7datalog21check_relation_plugin3getERKNS_13relation_baseE.exit, %_ZN11ast_manager7inc_refEP3ast.exit.i.i
  %.not = icmp eq ptr %17, null
  br i1 %.not, label %27, label %24

24:                                               ; preds = %_ZN7obj_refI3app11ast_managerEC2EPS0_RS1_.exit
  %25 = invoke noalias noundef ptr @_ZN6memory8allocateEm(i64 noundef 48)
          to label %26 unwind label %40

26:                                               ; preds = %24
  invoke void @_ZN7datalog21check_relation_plugin14filter_proj_fnC2EPNS_17tr_infrastructureINS_15relation_traitsEE14transformer_fnERKNS_13relation_baseER7obj_refI3app11ast_managerEjPKj(ptr noundef nonnull align 8 dereferenceable(48) %25, ptr noundef nonnull %17, ptr noundef nonnull align 8 dereferenceable(28) %1, ptr noundef nonnull align 8 dereferenceable(16) %6, i32 noundef %3, ptr noundef %4)
          to label %._crit_edge unwind label %40

._crit_edge:                                      ; preds = %26
  %.pre = load ptr, ptr %6, align 8, !tbaa !639
  br label %27

27:                                               ; preds = %._crit_edge, %_ZN7obj_refI3app11ast_managerEC2EPS0_RS1_.exit
  %28 = phi ptr [ %.pre, %._crit_edge ], [ %2, %_ZN7obj_refI3app11ast_managerEC2EPS0_RS1_.exit ]
  %29 = phi ptr [ %25, %._crit_edge ], [ null, %_ZN7obj_refI3app11ast_managerEC2EPS0_RS1_.exit ]
  %.not.i.i12 = icmp eq ptr %28, null
  br i1 %.not.i.i12, label %_ZN7obj_refI3app11ast_managerED2Ev.exit, label %30

30:                                               ; preds = %27
  %31 = load ptr, ptr %20, align 8, !tbaa !640
  %32 = getelementptr inbounds nuw i8, ptr %28, i64 8
  %33 = load i32, ptr %32, align 4, !tbaa !37
  %34 = add i32 %33, -1
  store i32 %34, ptr %32, align 4, !tbaa !37
  %35 = icmp eq i32 %34, 0
  br i1 %35, label %36, label %_ZN7obj_refI3app11ast_managerED2Ev.exit

36:                                               ; preds = %30
  invoke void @_ZN11ast_manager11delete_nodeEP3ast(ptr noundef nonnull align 8 dereferenceable(976) %31, ptr noundef nonnull %28)
          to label %_ZN7obj_refI3app11ast_managerED2Ev.exit unwind label %37

37:                                               ; preds = %36
  %38 = landingpad { ptr, i32 }
          catch ptr null
  %39 = extractvalue { ptr, i32 } %38, 0
  call void @__clang_call_terminate(ptr %39) #25
  unreachable

_ZN7obj_refI3app11ast_managerED2Ev.exit:          ; preds = %27, %30, %36
  call void @llvm.lifetime.end.p0(i64 16, ptr nonnull %6) #24
  ret ptr %29

40:                                               ; preds = %26, %24
  %41 = landingpad { ptr, i32 }
          cleanup
  call void @_ZN7obj_refI3app11ast_managerED2Ev(ptr noundef nonnull align 8 dereferenceable(16) %6) #24
  call void @llvm.lifetime.end.p0(i64 16, ptr nonnull %6) #24
  resume { ptr, i32 } %41
}